target datalayout = "e-m:e-p270:32:32-p271:32:32-p272:64:64-i64:64-i128:128-f80:128-n8:16:32:64-S128"
target triple = "x86_64-unknown-linux-gnu"

%"class.std::__cxx11::basic_string" = type { %"struct.std::__cxx11::basic_string<char>::_Alloc_hider", i64, %union.anon }
%"struct.std::__cxx11::basic_string<char>::_Alloc_hider" = type { ptr }
%union.anon = type { i64, [8 x i8] }
%"class.rocksdb::FSRandomAccessFile" = type { ptr }
%"class.rocksdb::PosixMmapReadableFile" = type { %"class.rocksdb::FSRandomAccessFile", i32, %"class.std::__cxx11::basic_string", ptr, i64 }

; Function Attrs: mustprogress nounwind uwtable
define linkonce_odr void @_ZN7rocksdb18FSRandomAccessFileD2Ev(ptr noundef nonnull align 8 dereferenceable(8) %this) unnamed_addr #3 comdat align 2 {
entry:
  %this.addr = alloca ptr, align 8
  store ptr %this, ptr %this.addr, align 8
  ret void
}

; Function Attrs: mustprogress nounwind uwtable
define linkonce_odr void @_ZN7rocksdb18FSRandomAccessFileC2Ev(ptr noundef nonnull align 8 dereferenceable(8) %this) unnamed_addr #3 comdat align 2 {
entry:
  %this.addr = alloca ptr, align 8
  store ptr %this, ptr %this.addr, align 8
  %this1 = load ptr, ptr %this.addr, align 8
  store ptr getelementptr inbounds ({ [14 x ptr] }, ptr @_ZTVN7rocksdb18FSRandomAccessFileE, i32 0, i32 0, i32 2), ptr %this1, align 8
  ret void
}

; Function Attrs: mustprogress uwtable
define void @_ZN7rocksdb21PosixMmapReadableFileC2EiRKNSt7__cxx1112basic_stringIcSt11char_traitsIcESaIcEEEPvmRKNS_10EnvOptionsE(ptr noundef nonnull align 8 dereferenceable(64) %this, i32 noundef %fd, ptr noundef nonnull align 8 dereferenceable(32) %fname, ptr noundef %base, i64 noundef %length, ptr noundef nonnull align 8 dereferenceable(56) %options) unnamed_addr #0 align 2 personality ptr @__gxx_personality_v0 {
entry:
  %this.addr = alloca ptr, align 8
  %fd.addr = alloca i32, align 4
  %fname.addr = alloca ptr, align 8
  %base.addr = alloca ptr, align 8
  %length.addr = alloca i64, align 8
  %options.addr = alloca ptr, align 8
  %exn.slot = alloca ptr, align 8
  %ehselector.slot = alloca i32, align 4
  store ptr %this, ptr %this.addr, align 8
  store i32 %fd, ptr %fd.addr, align 4
  store ptr %fname, ptr %fname.addr, align 8
  store ptr %base, ptr %base.addr, align 8
  store i64 %length, ptr %length.addr, align 8
  store ptr %options, ptr %options.addr, align 8
  %this1 = load ptr, ptr %this.addr, align 8
  call void @_ZN7rocksdb18FSRandomAccessFileC2Ev(ptr noundef nonnull align 8 dereferenceable(8) %this1)
  store ptr getelementptr inbounds ({ [14 x ptr] }, ptr @_ZTVN7rocksdb21PosixMmapReadableFileE, i32 0, i32 0, i32 2), ptr %this1, align 8
  %fd_ = getelementptr inbounds %"class.rocksdb::PosixMmapReadableFile", ptr %this1, i32 0, i32 1
  %0 = load i32, ptr %fd.addr, align 4
  store i32 %0, ptr %fd_, align 8
  %filename_ = getelementptr inbounds %"class.rocksdb::PosixMmapReadableFile", ptr %this1, i32 0, i32 2
  %1 = load ptr, ptr %fname.addr, align 8
  invoke void @_ZNSt7__cxx1112basic_stringIcSt11char_traitsIcESaIcEEC1ERKS4_(ptr noundef nonnull align 8 dereferenceable(32) %filename_, ptr noundef nonnull align 8 dereferenceable(32) %1)
          to label %invoke.cont unwind label %lpad

invoke.cont:                                      ; preds = %entry
  %mmapped_region_ = getelementptr inbounds %"class.rocksdb::PosixMmapReadableFile", ptr %this1, i32 0, i32 3
  %2 = load ptr, ptr %base.addr, align 8
  store ptr %2, ptr %mmapped_region_, align 8
  %length_ = getelementptr inbounds %"class.rocksdb::PosixMmapReadableFile", ptr %this1, i32 0, i32 4
  %3 = load i64, ptr %length.addr, align 8
  store i64 %3, ptr %length_, align 8
  %fd_2 = getelementptr inbounds %"class.rocksdb::PosixMmapReadableFile", ptr %this1, i32 0, i32 1
  %4 = load i32, ptr %fd_2, align 8
  %add = add nsw i32 %4, 0
  %fd_3 = getelementptr inbounds %"class.rocksdb::PosixMmapReadableFile", ptr %this1, i32 0, i32 1
  store i32 %add, ptr %fd_3, align 8
  ret void

lpad:                                             ; preds = %entry
  %5 = landingpad { ptr, i32 }
          cleanup
  %6 = extractvalue { ptr, i32 } %5, 0
  store ptr %6, ptr %exn.slot, align 8
  %7 = extractvalue { ptr, i32 } %5, 1
  store i32 %7, ptr %ehselector.slot, align 4
  call void @_ZN7rocksdb18FSRandomAccessFileD2Ev(ptr noundef nonnull align 8 dereferenceable(8) %this1) #15
  br label %eh.resume

eh.resume:                                        ; preds = %lpad
  %exn = load ptr, ptr %exn.slot, align 8
  %sel = load i32, ptr %ehselector.slot, align 4
  %lpad.val = insertvalue { ptr, i32 } poison, ptr %exn, 0
  %lpad.val4 = insertvalue { ptr, i32 } %lpad.val, i32 %sel, 1
  resume { ptr, i32 } %lpad.val4
}