; Function Attrs: mustprogress uwtable
define void @_ZN7rocksdb21PosixMmapReadableFileC2EiRKNSt7__cxx1112basic_stringIcSt11char_traitsIcESaIcEEEPvmRKNS_10EnvOptionsE(ptr noundef nonnull align 8 dereferenceable(64) %this, i32 noundef %fd, ptr noundef nonnull align 8 dereferenceable(32) %fname, ptr noundef %base, i64 noundef %length, ptr nocapture nonnull readnone align 8 %options) unnamed_addr #0 align 2 personality ptr @__gxx_personality_v0 {
entry:
  store ptr getelementptr inbounds ({ [14 x ptr] }, ptr @_ZTVN7rocksdb21PosixMmapReadableFileE, i64 0, i32 0, i64 2), ptr %this, align 8
  %fd_ = getelementptr inbounds i8, ptr %this, i64 8
  store i32 %fd, ptr %fd_, align 8
  %filename_ = getelementptr inbounds i8, ptr %this, i64 16
  tail call void @_ZNSt7__cxx1112basic_stringIcSt11char_traitsIcESaIcEEC1ERKS4_(ptr noundef nonnull align 8 dereferenceable(32) %filename_, ptr noundef nonnull align 8 dereferenceable(32) %fname)
  %mmapped_region_ = getelementptr inbounds i8, ptr %this, i64 48
  store ptr %base, ptr %mmapped_region_, align 8
  %length_ = getelementptr inbounds i8, ptr %this, i64 56
  store i64 %length, ptr %length_, align 8
  ret void
}